target datalayout = "e-m:e-p270:32:32-p271:32:32-p272:64:64-i64:64-i128:128-f80:128-n8:16:32:64-S128"
target triple = "x86_64-pc-linux-gnu"

@Base64 = internal constant [65 x i8] c"ABCDEFGHIJKLMNOPQRSTUVWXYZabcdefghijklmnopqrstuvwxyz0123456789+/\00", align 16

; Function Attrs: nounwind uwtable
define hidden i32 @hwloc_encode_to_base64(ptr noundef %0, i64 noundef %1, ptr noundef %2, i64 noundef %3) #0 {
  %5 = alloca i32, align 4
  %6 = alloca ptr, align 8
  %7 = alloca i64, align 8
  %8 = alloca ptr, align 8
  %9 = alloca i64, align 8
  %10 = alloca i64, align 8
  %11 = alloca [3 x i8], align 1
  %12 = alloca [4 x i8], align 1
  %13 = alloca i32, align 4
  %14 = alloca i32, align 4
  store ptr %0, ptr %6, align 8, !tbaa !3
  store i64 %1, ptr %7, align 8, !tbaa !8
  store ptr %2, ptr %8, align 8, !tbaa !3
  store i64 %3, ptr %9, align 8, !tbaa !8
  call void @llvm.lifetime.start.p0(i64 8, ptr %10) #4
  store i64 0, ptr %10, align 8, !tbaa !8
  call void @llvm.lifetime.start.p0(i64 3, ptr %11) #4
  call void @llvm.lifetime.start.p0(i64 4, ptr %12) #4
  call void @llvm.lifetime.start.p0(i64 4, ptr %13) #4
  br label %15

15:                                               ; preds = %74, %4
  %16 = load i64, ptr %7, align 8, !tbaa !8
  %17 = icmp ult i64 2, %16
  br i1 %17, label %18, label %111

18:                                               ; preds = %15
  %19 = load ptr, ptr %6, align 8, !tbaa !3
  %20 = getelementptr inbounds nuw i8, ptr %19, i32 1
  store ptr %20, ptr %6, align 8, !tbaa !3
  %21 = load i8, ptr %19, align 1, !tbaa !10
  %22 = getelementptr inbounds [3 x i8], ptr %11, i64 0, i64 0
  store i8 %21, ptr %22, align 1, !tbaa !10
  %23 = load ptr, ptr %6, align 8, !tbaa !3
  %24 = getelementptr inbounds nuw i8, ptr %23, i32 1
  store ptr %24, ptr %6, align 8, !tbaa !3
  %25 = load i8, ptr %23, align 1, !tbaa !10
  %26 = getelementptr inbounds [3 x i8], ptr %11, i64 0, i64 1
  store i8 %25, ptr %26, align 1, !tbaa !10
  %27 = load ptr, ptr %6, align 8, !tbaa !3
  %28 = getelementptr inbounds nuw i8, ptr %27, i32 1
  store ptr %28, ptr %6, align 8, !tbaa !3
  %29 = load i8, ptr %27, align 1, !tbaa !10
  %30 = getelementptr inbounds [3 x i8], ptr %11, i64 0, i64 2
  store i8 %29, ptr %30, align 1, !tbaa !10
  %31 = load i64, ptr %7, align 8, !tbaa !8
  %32 = sub i64 %31, 3
  store i64 %32, ptr %7, align 8, !tbaa !8
  %33 = getelementptr inbounds [3 x i8], ptr %11, i64 0, i64 0
  %34 = load i8, ptr %33, align 1, !tbaa !10
  %35 = zext i8 %34 to i32
  %36 = ashr i32 %35, 2
  %37 = trunc i32 %36 to i8
  %38 = getelementptr inbounds [4 x i8], ptr %12, i64 0, i64 0
  store i8 %37, ptr %38, align 1, !tbaa !10
  %39 = getelementptr inbounds [3 x i8], ptr %11, i64 0, i64 0
  %40 = load i8, ptr %39, align 1, !tbaa !10
  %41 = zext i8 %40 to i32
  %42 = and i32 %41, 3
  %43 = shl i32 %42, 4
  %44 = getelementptr inbounds [3 x i8], ptr %11, i64 0, i64 1
  %45 = load i8, ptr %44, align 1, !tbaa !10
  %46 = zext i8 %45 to i32
  %47 = ashr i32 %46, 4
  %48 = add nsw i32 %43, %47
  %49 = trunc i32 %48 to i8
  %50 = getelementptr inbounds [4 x i8], ptr %12, i64 0, i64 1
  store i8 %49, ptr %50, align 1, !tbaa !10
  %51 = getelementptr inbounds [3 x i8], ptr %11, i64 0, i64 1
  %52 = load i8, ptr %51, align 1, !tbaa !10
  %53 = zext i8 %52 to i32
  %54 = and i32 %53, 15
  %55 = shl i32 %54, 2
  %56 = getelementptr inbounds [3 x i8], ptr %11, i64 0, i64 2
  %57 = load i8, ptr %56, align 1, !tbaa !10
  %58 = zext i8 %57 to i32
  %59 = ashr i32 %58, 6
  %60 = add nsw i32 %55, %59
  %61 = trunc i32 %60 to i8
  %62 = getelementptr inbounds [4 x i8], ptr %12, i64 0, i64 2
  store i8 %61, ptr %62, align 1, !tbaa !10
  %63 = getelementptr inbounds [3 x i8], ptr %11, i64 0, i64 2
  %64 = load i8, ptr %63, align 1, !tbaa !10
  %65 = zext i8 %64 to i32
  %66 = and i32 %65, 63
  %67 = trunc i32 %66 to i8
  %68 = getelementptr inbounds [4 x i8], ptr %12, i64 0, i64 3
  store i8 %67, ptr %68, align 1, !tbaa !10
  %69 = load i64, ptr %10, align 8, !tbaa !8
  %70 = add i64 %69, 4
  %71 = load i64, ptr %9, align 8, !tbaa !8
  %72 = icmp ugt i64 %70, %71
  br i1 %72, label %73, label %74

73:                                               ; preds = %18
  store i32 -1, ptr %5, align 4
  store i32 1, ptr %14, align 4
  br label %221

74:                                               ; preds = %18
  %75 = getelementptr inbounds [4 x i8], ptr %12, i64 0, i64 0
  %76 = load i8, ptr %75, align 1, !tbaa !10
  %77 = zext i8 %76 to i64
  %78 = getelementptr inbounds nuw [65 x i8], ptr @Base64, i64 0, i64 %77
  %79 = load i8, ptr %78, align 1, !tbaa !10
  %80 = load ptr, ptr %8, align 8, !tbaa !3
  %81 = load i64, ptr %10, align 8, !tbaa !8
  %82 = add i64 %81, 1
  store i64 %82, ptr %10, align 8, !tbaa !8
  %83 = getelementptr inbounds nuw i8, ptr %80, i64 %81
  store i8 %79, ptr %83, align 1, !tbaa !10
  %84 = getelementptr inbounds [4 x i8], ptr %12, i64 0, i64 1
  %85 = load i8, ptr %84, align 1, !tbaa !10
  %86 = zext i8 %85 to i64
  %87 = getelementptr inbounds nuw [65 x i8], ptr @Base64, i64 0, i64 %86
  %88 = load i8, ptr %87, align 1, !tbaa !10
  %89 = load ptr, ptr %8, align 8, !tbaa !3
  %90 = load i64, ptr %10, align 8, !tbaa !8
  %91 = add i64 %90, 1
  store i64 %91, ptr %10, align 8, !tbaa !8
  %92 = getelementptr inbounds nuw i8, ptr %89, i64 %90
  store i8 %88, ptr %92, align 1, !tbaa !10
  %93 = getelementptr inbounds [4 x i8], ptr %12, i64 0, i64 2
  %94 = load i8, ptr %93, align 1, !tbaa !10
  %95 = zext i8 %94 to i64
  %96 = getelementptr inbounds nuw [65 x i8], ptr @Base64, i64 0, i64 %95
  %97 = load i8, ptr %96, align 1, !tbaa !10
  %98 = load ptr, ptr %8, align 8, !tbaa !3
  %99 = load i64, ptr %10, align 8, !tbaa !8
  %100 = add i64 %99, 1
  store i64 %100, ptr %10, align 8, !tbaa !8
  %101 = getelementptr inbounds nuw i8, ptr %98, i64 %99
  store i8 %97, ptr %101, align 1, !tbaa !10
  %102 = getelementptr inbounds [4 x i8], ptr %12, i64 0, i64 3
  %103 = load i8, ptr %102, align 1, !tbaa !10
  %104 = zext i8 %103 to i64
  %105 = getelementptr inbounds nuw [65 x i8], ptr @Base64, i64 0, i64 %104
  %106 = load i8, ptr %105, align 1, !tbaa !10
  %107 = load ptr, ptr %8, align 8, !tbaa !3
  %108 = load i64, ptr %10, align 8, !tbaa !8
  %109 = add i64 %108, 1
  store i64 %109, ptr %10, align 8, !tbaa !8
  %110 = getelementptr inbounds nuw i8, ptr %107, i64 %108
  store i8 %106, ptr %110, align 1, !tbaa !10
  br label %15, !llvm.loop !11

111:                                              ; preds = %15
  %112 = load i64, ptr %7, align 8, !tbaa !8
  %113 = icmp ne i64 0, %112
  br i1 %113, label %114, label %210

114:                                              ; preds = %111
  %115 = getelementptr inbounds [3 x i8], ptr %11, i64 0, i64 2
  store i8 0, ptr %115, align 1, !tbaa !10
  %116 = getelementptr inbounds [3 x i8], ptr %11, i64 0, i64 1
  store i8 0, ptr %116, align 1, !tbaa !10
  %117 = getelementptr inbounds [3 x i8], ptr %11, i64 0, i64 0
  store i8 0, ptr %117, align 1, !tbaa !10
  store i32 0, ptr %13, align 4, !tbaa !13
  br label %118

118:                                              ; preds = %130, %114
  %119 = load i32, ptr %13, align 4, !tbaa !13
  %120 = zext i32 %119 to i64
  %121 = load i64, ptr %7, align 8, !tbaa !8
  %122 = icmp ult i64 %120, %121
  br i1 %122, label %123, label %133

123:                                              ; preds = %118
  %124 = load ptr, ptr %6, align 8, !tbaa !3
  %125 = getelementptr inbounds nuw i8, ptr %124, i32 1
  store ptr %125, ptr %6, align 8, !tbaa !3
  %126 = load i8, ptr %124, align 1, !tbaa !10
  %127 = load i32, ptr %13, align 4, !tbaa !13
  %128 = zext i32 %127 to i64
  %129 = getelementptr inbounds nuw [3 x i8], ptr %11, i64 0, i64 %128
  store i8 %126, ptr %129, align 1, !tbaa !10
  br label %130

130:                                              ; preds = %123
  %131 = load i32, ptr %13, align 4, !tbaa !13
  %132 = add i32 %131, 1
  store i32 %132, ptr %13, align 4, !tbaa !13
  br label %118, !llvm.loop !15

133:                                              ; preds = %118
  %134 = getelementptr inbounds [3 x i8], ptr %11, i64 0, i64 0
  %135 = load i8, ptr %134, align 1, !tbaa !10
  %136 = zext i8 %135 to i32
  %137 = ashr i32 %136, 2
  %138 = trunc i32 %137 to i8
  %139 = getelementptr inbounds [4 x i8], ptr %12, i64 0, i64 0
  store i8 %138, ptr %139, align 1, !tbaa !10
  %140 = getelementptr inbounds [3 x i8], ptr %11, i64 0, i64 0
  %141 = load i8, ptr %140, align 1, !tbaa !10
  %142 = zext i8 %141 to i32
  %143 = and i32 %142, 3
  %144 = shl i32 %143, 4
  %145 = getelementptr inbounds [3 x i8], ptr %11, i64 0, i64 1
  %146 = load i8, ptr %145, align 1, !tbaa !10
  %147 = zext i8 %146 to i32
  %148 = ashr i32 %147, 4
  %149 = add nsw i32 %144, %148
  %150 = trunc i32 %149 to i8
  %151 = getelementptr inbounds [4 x i8], ptr %12, i64 0, i64 1
  store i8 %150, ptr %151, align 1, !tbaa !10
  %152 = getelementptr inbounds [3 x i8], ptr %11, i64 0, i64 1
  %153 = load i8, ptr %152, align 1, !tbaa !10
  %154 = zext i8 %153 to i32
  %155 = and i32 %154, 15
  %156 = shl i32 %155, 2
  %157 = getelementptr inbounds [3 x i8], ptr %11, i64 0, i64 2
  %158 = load i8, ptr %157, align 1, !tbaa !10
  %159 = zext i8 %158 to i32
  %160 = ashr i32 %159, 6
  %161 = add nsw i32 %156, %160
  %162 = trunc i32 %161 to i8
  %163 = getelementptr inbounds [4 x i8], ptr %12, i64 0, i64 2
  store i8 %162, ptr %163, align 1, !tbaa !10
  %164 = load i64, ptr %10, align 8, !tbaa !8
  %165 = add i64 %164, 4
  %166 = load i64, ptr %9, align 8, !tbaa !8
  %167 = icmp ugt i64 %165, %166
  br i1 %167, label %168, label %169

168:                                              ; preds = %133
  store i32 -1, ptr %5, align 4
  store i32 1, ptr %14, align 4
  br label %221

169:                                              ; preds = %133
  %170 = getelementptr inbounds [4 x i8], ptr %12, i64 0, i64 0
  %171 = load i8, ptr %170, align 1, !tbaa !10
  %172 = zext i8 %171 to i64
  %173 = getelementptr inbounds nuw [65 x i8], ptr @Base64, i64 0, i64 %172
  %174 = load i8, ptr %173, align 1, !tbaa !10
  %175 = load ptr, ptr %8, align 8, !tbaa !3
  %176 = load i64, ptr %10, align 8, !tbaa !8
  %177 = add i64 %176, 1
  store i64 %177, ptr %10, align 8, !tbaa !8
  %178 = getelementptr inbounds nuw i8, ptr %175, i64 %176
  store i8 %174, ptr %178, align 1, !tbaa !10
  %179 = getelementptr inbounds [4 x i8], ptr %12, i64 0, i64 1
  %180 = load i8, ptr %179, align 1, !tbaa !10
  %181 = zext i8 %180 to i64
  %182 = getelementptr inbounds nuw [65 x i8], ptr @Base64, i64 0, i64 %181
  %183 = load i8, ptr %182, align 1, !tbaa !10
  %184 = load ptr, ptr %8, align 8, !tbaa !3
  %185 = load i64, ptr %10, align 8, !tbaa !8
  %186 = add i64 %185, 1
  store i64 %186, ptr %10, align 8, !tbaa !8
  %187 = getelementptr inbounds nuw i8, ptr %184, i64 %185
  store i8 %183, ptr %187, align 1, !tbaa !10
  %188 = load i64, ptr %7, align 8, !tbaa !8
  %189 = icmp eq i64 %188, 1
  br i1 %189, label %190, label %195

190:                                              ; preds = %169
  %191 = load ptr, ptr %8, align 8, !tbaa !3
  %192 = load i64, ptr %10, align 8, !tbaa !8
  %193 = add i64 %192, 1
  store i64 %193, ptr %10, align 8, !tbaa !8
  %194 = getelementptr inbounds nuw i8, ptr %191, i64 %192
  store i8 61, ptr %194, align 1, !tbaa !10
  br label %205

195:                                              ; preds = %169
  %196 = getelementptr inbounds [4 x i8], ptr %12, i64 0, i64 2
  %197 = load i8, ptr %196, align 1, !tbaa !10
  %198 = zext i8 %197 to i64
  %199 = getelementptr inbounds nuw [65 x i8], ptr @Base64, i64 0, i64 %198
  %200 = load i8, ptr %199, align 1, !tbaa !10
  %201 = load ptr, ptr %8, align 8, !tbaa !3
  %202 = load i64, ptr %10, align 8, !tbaa !8
  %203 = add i64 %202, 1
  store i64 %203, ptr %10, align 8, !tbaa !8
  %204 = getelementptr inbounds nuw i8, ptr %201, i64 %202
  store i8 %200, ptr %204, align 1, !tbaa !10
  br label %205

205:                                              ; preds = %195, %190
  %206 = load ptr, ptr %8, align 8, !tbaa !3
  %207 = load i64, ptr %10, align 8, !tbaa !8
  %208 = add i64 %207, 1
  store i64 %208, ptr %10, align 8, !tbaa !8
  %209 = getelementptr inbounds nuw i8, ptr %206, i64 %207
  store i8 61, ptr %209, align 1, !tbaa !10
  br label %210

210:                                              ; preds = %205, %111
  %211 = load i64, ptr %10, align 8, !tbaa !8
  %212 = load i64, ptr %9, align 8, !tbaa !8
  %213 = icmp uge i64 %211, %212
  br i1 %213, label %214, label %215

214:                                              ; preds = %210
  store i32 -1, ptr %5, align 4
  store i32 1, ptr %14, align 4
  br label %221

215:                                              ; preds = %210
  %216 = load ptr, ptr %8, align 8, !tbaa !3
  %217 = load i64, ptr %10, align 8, !tbaa !8
  %218 = getelementptr inbounds nuw i8, ptr %216, i64 %217
  store i8 0, ptr %218, align 1, !tbaa !10
  %219 = load i64, ptr %10, align 8, !tbaa !8
  %220 = trunc i64 %219 to i32
  store i32 %220, ptr %5, align 4
  store i32 1, ptr %14, align 4
  br label %221

221:                                              ; preds = %215, %214, %168, %73
  call void @llvm.lifetime.end.p0(i64 4, ptr %13) #4
  call void @llvm.lifetime.end.p0(i64 4, ptr %12) #4
  call void @llvm.lifetime.end.p0(i64 3, ptr %11) #4
  call void @llvm.lifetime.end.p0(i64 8, ptr %10) #4
  %222 = load i32, ptr %5, align 4
  ret i32 %222
}