; Function Attrs: nofree norecurse nosync nounwind memory(argmem: readwrite) uwtable
define hidden i32 @hwloc_encode_to_base64(ptr noundef readonly captures(none) %0, i64 noundef %1, ptr noundef writeonly captures(none) %2, i64 noundef %3) local_unnamed_addr #0 {
  %5 = alloca [3 x i8], align 1
  call void @llvm.lifetime.start.p0(i64 3, ptr nonnull %5) #5
  %6 = icmp ugt i64 %1, 2
  br i1 %6, label %.lr.ph, label %._crit_edge

.lr.ph:                                           ; preds = %4, %9
  %.04355 = phi i64 [ %7, %9 ], [ 0, %4 ]
  %.04454 = phi ptr [ %26, %9 ], [ %0, %4 ]
  %.04653 = phi i64 [ %25, %9 ], [ %1, %4 ]
  %7 = add i64 %.04355, 4
  %8 = icmp ugt i64 %7, %3
  br i1 %8, label %.loopexit, label %9

9:                                                ; preds = %.lr.ph
  %10 = getelementptr inbounds nuw i8, ptr %.04454, i64 2
  %11 = load i8, ptr %10, align 1, !tbaa !3
  %12 = getelementptr inbounds nuw i8, ptr %.04454, i64 1
  %13 = load i8, ptr %12, align 1, !tbaa !3
  %14 = load i8, ptr %.04454, align 1, !tbaa !3
  %15 = and i8 %11, 63
  %16 = shl i8 %13, 2
  %17 = and i8 %16, 60
  %18 = lshr i8 %11, 6
  %19 = or disjoint i8 %18, %17
  %20 = shl i8 %14, 4
  %21 = and i8 %20, 48
  %22 = lshr i8 %13, 4
  %23 = or disjoint i8 %22, %21
  %24 = lshr i8 %14, 2
  %25 = add i64 %.04653, -3
  %26 = getelementptr inbounds nuw i8, ptr %.04454, i64 3
  %27 = zext nneg i8 %24 to i64
  %28 = getelementptr inbounds nuw [65 x i8], ptr @Base64, i64 0, i64 %27
  %29 = load i8, ptr %28, align 1, !tbaa !3
  %30 = getelementptr inbounds nuw i8, ptr %2, i64 %.04355
  store i8 %29, ptr %30, align 1, !tbaa !3
  %31 = zext nneg i8 %23 to i64
  %32 = getelementptr inbounds nuw [65 x i8], ptr @Base64, i64 0, i64 %31
  %33 = load i8, ptr %32, align 1, !tbaa !3
  %34 = getelementptr i8, ptr %30, i64 1
  store i8 %33, ptr %34, align 1, !tbaa !3
  %35 = zext nneg i8 %19 to i64
  %36 = getelementptr inbounds nuw [65 x i8], ptr @Base64, i64 0, i64 %35
  %37 = load i8, ptr %36, align 1, !tbaa !3
  %38 = or disjoint i64 %.04355, 3
  %39 = getelementptr i8, ptr %30, i64 2
  store i8 %37, ptr %39, align 1, !tbaa !3
  %40 = zext nneg i8 %15 to i64
  %41 = getelementptr inbounds nuw [65 x i8], ptr @Base64, i64 0, i64 %40
  %42 = load i8, ptr %41, align 1, !tbaa !3
  %43 = getelementptr inbounds nuw i8, ptr %2, i64 %38
  store i8 %42, ptr %43, align 1, !tbaa !3
  %44 = icmp ugt i64 %25, 2
  br i1 %44, label %.lr.ph, label %._crit_edge, !llvm.loop !6

._crit_edge:                                      ; preds = %9, %4
  %.046.lcssa = phi i64 [ %1, %4 ], [ %25, %9 ]
  %.044.lcssa = phi ptr [ %0, %4 ], [ %26, %9 ]
  %.043.lcssa = phi i64 [ 0, %4 ], [ %7, %9 ]
  %.not = icmp eq i64 %.046.lcssa, 0
  br i1 %.not, label %89, label %45

45:                                               ; preds = %._crit_edge
  %46 = getelementptr inbounds nuw i8, ptr %5, i64 2
  store i8 0, ptr %46, align 1, !tbaa !3
  %47 = getelementptr inbounds nuw i8, ptr %5, i64 1
  store i8 0, ptr %47, align 1, !tbaa !3
  store i8 0, ptr %5, align 1, !tbaa !3
  br label %48

48:                                               ; preds = %45, %48
  %49 = phi i64 [ 0, %45 ], [ %54, %48 ]
  %.064 = phi i32 [ 0, %45 ], [ %53, %48 ]
  %.14563 = phi ptr [ %.044.lcssa, %45 ], [ %50, %48 ]
  %50 = getelementptr inbounds nuw i8, ptr %.14563, i64 1
  %51 = load i8, ptr %.14563, align 1, !tbaa !3
  %52 = getelementptr inbounds nuw [3 x i8], ptr %5, i64 0, i64 %49
  store i8 %51, ptr %52, align 1, !tbaa !3
  %53 = add i32 %.064, 1
  %54 = zext i32 %53 to i64
  %55 = icmp samesign ugt i64 %.046.lcssa, %54
  br i1 %55, label %48, label %56, !llvm.loop !8

56:                                               ; preds = %48
  %57 = load i8, ptr %47, align 1, !tbaa !3
  %58 = shl i8 %57, 2
  %59 = and i8 %58, 60
  %60 = load i8, ptr %46, align 1, !tbaa !3
  %61 = lshr i8 %60, 6
  %62 = or disjoint i8 %59, %61
  %63 = add i64 %.043.lcssa, 4
  %64 = icmp ugt i64 %63, %3
  br i1 %64, label %.loopexit, label %65

65:                                               ; preds = %56
  %66 = load i8, ptr %5, align 1, !tbaa !3
  %67 = shl i8 %66, 4
  %68 = and i8 %67, 48
  %69 = lshr i8 %57, 4
  %70 = or disjoint i8 %68, %69
  %71 = lshr i8 %66, 2
  %72 = zext nneg i8 %71 to i64
  %73 = getelementptr inbounds nuw [65 x i8], ptr @Base64, i64 0, i64 %72
  %74 = load i8, ptr %73, align 1, !tbaa !3
  %75 = getelementptr inbounds nuw i8, ptr %2, i64 %.043.lcssa
  store i8 %74, ptr %75, align 1, !tbaa !3
  %76 = zext nneg i8 %70 to i64
  %77 = getelementptr inbounds nuw [65 x i8], ptr @Base64, i64 0, i64 %76
  %78 = load i8, ptr %77, align 1, !tbaa !3
  %79 = or disjoint i64 %.043.lcssa, 2
  %80 = getelementptr i8, ptr %75, i64 1
  store i8 %78, ptr %80, align 1, !tbaa !3
  %81 = icmp eq i64 %.046.lcssa, 1
  br i1 %81, label %86, label %82

82:                                               ; preds = %65
  %83 = zext nneg i8 %62 to i64
  %84 = getelementptr inbounds nuw [65 x i8], ptr @Base64, i64 0, i64 %83
  %85 = load i8, ptr %84, align 1, !tbaa !3
  br label %86

86:                                               ; preds = %65, %82
  %.sink = phi i8 [ %85, %82 ], [ 61, %65 ]
  %87 = getelementptr inbounds nuw i8, ptr %2, i64 %79
  store i8 %.sink, ptr %87, align 1, !tbaa !3
  %88 = getelementptr i8, ptr %75, i64 3
  store i8 61, ptr %88, align 1, !tbaa !3
  br label %89

89:                                               ; preds = %86, %._crit_edge
  %.1 = phi i64 [ %63, %86 ], [ %.043.lcssa, %._crit_edge ]
  %.not48 = icmp ult i64 %.1, %3
  br i1 %.not48, label %90, label %.loopexit

90:                                               ; preds = %89
  %91 = getelementptr inbounds nuw i8, ptr %2, i64 %.1
  store i8 0, ptr %91, align 1, !tbaa !3
  %92 = trunc i64 %.1 to i32
  br label %.loopexit

.loopexit:                                        ; preds = %.lr.ph, %89, %56, %90
  %.042 = phi i32 [ %92, %90 ], [ -1, %56 ], [ -1, %89 ], [ -1, %.lr.ph ]
  call void @llvm.lifetime.end.p0(i64 3, ptr nonnull %5) #5
  ret i32 %.042
}